; Function Attrs: mustprogress nounwind uwtable
define hidden void @_ZN17opencv_tensorflow16TensorShapeProtoD2Ev(ptr noundef nonnull align 8 dereferenceable(48) %0) unnamed_addr #5 align 2 personality ptr @__gxx_personality_v0 {
  %2 = getelementptr inbounds nuw i8, ptr %0, i64 8
  %3 = load i64, ptr %2, align 8, !tbaa !3
  %4 = and i64 %3, 1
  %.not.i = icmp eq i64 %4, 0
  br i1 %.not.i, label %_ZN6google8protobuf8internal16InternalMetadata6DeleteINS0_15UnknownFieldSetEEEvv.exit, label %_ZNK6google8protobuf11MessageLite21GetArenaForAllocationEv.exit.thread, !prof !23

_ZNK6google8protobuf11MessageLite21GetArenaForAllocationEv.exit.thread: ; preds = %1
  %5 = and i64 %3, -4
  %6 = inttoptr i64 %5 to ptr
  %7 = load ptr, ptr %6, align 8, !tbaa !24
  %.not4 = icmp eq ptr %7, null
  br i1 %.not4, label %8, label %_ZN6google8protobuf8internal16InternalMetadata6DeleteINS0_15UnknownFieldSetEEEvv.exit

8:                                                ; preds = %_ZNK6google8protobuf11MessageLite21GetArenaForAllocationEv.exit.thread
  invoke void @_ZN6google8protobuf8internal16InternalMetadata21DeleteOutOfLineHelperINS0_15UnknownFieldSetEEEvv(ptr noundef nonnull align 8 dereferenceable(8) %2)
          to label %_ZN6google8protobuf8internal16InternalMetadata6DeleteINS0_15UnknownFieldSetEEEvv.exit unwind label %29

_ZN6google8protobuf8internal16InternalMetadata6DeleteINS0_15UnknownFieldSetEEEvv.exit: ; preds = %1, %8, %_ZNK6google8protobuf11MessageLite21GetArenaForAllocationEv.exit.thread
  %9 = getelementptr inbounds nuw i8, ptr %0, i64 16
  %10 = getelementptr inbounds nuw i8, ptr %0, i64 32
  %11 = load ptr, ptr %10, align 8, !tbaa !57
  %.not.i.i = icmp ne ptr %11, null
  %12 = load ptr, ptr %9, align 8
  %13 = icmp eq ptr %12, null
  %14 = select i1 %.not.i.i, i1 %13, i1 false
  br i1 %14, label %15, label %_ZN6google8protobuf16RepeatedPtrFieldIN17opencv_tensorflow20TensorShapeProto_DimEED2Ev.exit

15:                                               ; preds = %_ZN6google8protobuf8internal16InternalMetadata6DeleteINS0_15UnknownFieldSetEEEvv.exit
  invoke void @_ZN6google8protobuf8internal20RepeatedPtrFieldBase13DestroyProtosEv(ptr noundef nonnull align 8 dereferenceable(24) %9)
          to label %_ZN6google8protobuf16RepeatedPtrFieldIN17opencv_tensorflow20TensorShapeProto_DimEED2Ev.exit unwind label %16

16:                                               ; preds = %15
  %17 = landingpad { ptr, i32 }
          catch ptr null
  %18 = extractvalue { ptr, i32 } %17, 0
  tail call void @__clang_call_terminate(ptr %18) #20
  unreachable

_ZN6google8protobuf16RepeatedPtrFieldIN17opencv_tensorflow20TensorShapeProto_DimEED2Ev.exit: ; preds = %_ZN6google8protobuf8internal16InternalMetadata6DeleteINS0_15UnknownFieldSetEEEvv.exit, %15
  store ptr getelementptr inbounds nuw inrange(-16, 104) (i8, ptr @_ZTVN6google8protobuf11MessageLiteE, i64 16), ptr %0, align 8, !tbaa !8
  %19 = load i64, ptr %2, align 8, !tbaa !3
  %20 = and i64 %19, 2
  %.not.i.i2 = icmp eq i64 %20, 0
  br i1 %.not.i.i2, label %_ZN6google8protobuf11MessageLiteD2Ev.exit, label %21

21:                                               ; preds = %_ZN6google8protobuf16RepeatedPtrFieldIN17opencv_tensorflow20TensorShapeProto_DimEED2Ev.exit
  %22 = and i64 %19, 1
  %.not1.i.i = icmp eq i64 %22, 0
  %23 = and i64 %19, -4
  %24 = inttoptr i64 %23 to ptr
  br i1 %.not1.i.i, label %_ZNK6google8protobuf8internal16InternalMetadata5arenaEv.exit.i.i, label %25, !prof !23

25:                                               ; preds = %21
  %26 = load ptr, ptr %24, align 8, !tbaa !24
  br label %_ZNK6google8protobuf8internal16InternalMetadata5arenaEv.exit.i.i

_ZNK6google8protobuf8internal16InternalMetadata5arenaEv.exit.i.i: ; preds = %25, %21
  %.0.i.i.i = phi ptr [ %26, %25 ], [ %24, %21 ]
  %27 = icmp eq ptr %.0.i.i.i, null
  br i1 %27, label %_ZN6google8protobuf11MessageLiteD2Ev.exit, label %28

28:                                               ; preds = %_ZNK6google8protobuf8internal16InternalMetadata5arenaEv.exit.i.i
  tail call void @_ZN6google8protobuf8internal15ThreadSafeArenaD1Ev(ptr noundef nonnull align 8 dereferenceable(32) %.0.i.i.i) #18
  tail call void @_ZdlPv(ptr noundef nonnull %.0.i.i.i) #19
  br label %_ZN6google8protobuf11MessageLiteD2Ev.exit

_ZN6google8protobuf11MessageLiteD2Ev.exit:        ; preds = %_ZN6google8protobuf16RepeatedPtrFieldIN17opencv_tensorflow20TensorShapeProto_DimEED2Ev.exit, %_ZNK6google8protobuf8internal16InternalMetadata5arenaEv.exit.i.i, %28
  ret void

29:                                               ; preds = %8
  %30 = landingpad { ptr, i32 }
          catch ptr null
  %31 = extractvalue { ptr, i32 } %30, 0
  tail call void @__clang_call_terminate(ptr %31) #20
  unreachable
}